; Function Attrs: mustprogress uwtable
define void @rocksdb_writebatch_singledelete_cf(ptr noundef nonnull %0, ptr noundef readonly captures(none) %1, ptr noundef %2, i64 noundef %3) local_unnamed_addr #0 personality ptr @__gxx_personality_v0 {
  %5 = alloca %"class.rocksdb::Status", align 8
  %6 = alloca %"class.rocksdb::Slice", align 8
  %7 = load ptr, ptr %1, align 8, !tbaa !196
  call void @llvm.lifetime.start.p0(i64 16, ptr nonnull %6) #43
  store ptr %2, ptr %6, align 8, !tbaa !251
  %8 = getelementptr inbounds nuw i8, ptr %6, i64 8
  store i64 %3, ptr %8, align 8, !tbaa !253
  call void @_ZN7rocksdb10WriteBatch12SingleDeleteEPNS_18ColumnFamilyHandleERKNS_5SliceE(ptr dead_on_unwind nonnull writable sret(%"class.rocksdb::Status") align 8 %5, ptr noundef nonnull align 8 dereferenceable(160) %0, ptr noundef %7, ptr noundef nonnull align 8 dereferenceable(16) %6)
  %9 = getelementptr inbounds nuw i8, ptr %5, i64 8
  %10 = load ptr, ptr %9, align 8, !tbaa !25
  %.not.i.i = icmp eq ptr %10, null
  br i1 %.not.i.i, label %_ZN7rocksdb6StatusD2Ev.exit, label %_ZNKSt14default_deleteIA_KcEclIS0_EENSt9enable_ifIXsr14is_convertibleIPA_T_PS1_EE5valueEvE4typeEPS5_.exit.i.i

_ZNKSt14default_deleteIA_KcEclIS0_EENSt9enable_ifIXsr14is_convertibleIPA_T_PS1_EE5valueEvE4typeEPS5_.exit.i.i: ; preds = %4
  call void @_ZdaPv(ptr noundef nonnull %10) #45
  br label %_ZN7rocksdb6StatusD2Ev.exit

_ZN7rocksdb6StatusD2Ev.exit:                      ; preds = %4, %_ZNKSt14default_deleteIA_KcEclIS0_EENSt9enable_ifIXsr14is_convertibleIPA_T_PS1_EE5valueEvE4typeEPS5_.exit.i.i
  call void @llvm.lifetime.end.p0(i64 16, ptr nonnull %6) #43
  ret void
}